; Function Attrs: mustprogress uwtable
define hidden noundef range(i32 4, 6) i32 @_ZN14label_rewriter10reduce_appEP9func_decljPKP4exprR7obj_refIS2_11ast_managerERS6_I3appS7_E(ptr noundef nonnull readonly align 8 captures(none) dereferenceable(544) %0, ptr noundef readonly captures(none) %1, i32 noundef %2, ptr noundef readonly captures(none) %3, ptr noundef nonnull align 8 captures(none) dereferenceable(16) %4, ptr noundef nonnull readnone align 8 captures(none) dereferenceable(16) %5) local_unnamed_addr #3 align 2 {
  %7 = getelementptr inbounds nuw i8, ptr %1, i64 24
  %8 = load ptr, ptr %7, align 8, !tbaa !63
  %9 = icmp eq ptr %8, null
  br i1 %9, label %_Z10is_decl_ofPK9func_declii.exit.thread4, label %_ZNK4decl13get_family_idEv.exit.thread.i

_ZNK4decl13get_family_idEv.exit.thread.i:         ; preds = %6
  %10 = load i32, ptr %0, align 8, !tbaa !3
  %11 = load i32, ptr %8, align 8, !tbaa !69
  %12 = icmp eq i32 %11, %10
  br i1 %12, label %_Z10is_decl_ofPK9func_declii.exit, label %_Z10is_decl_ofPK9func_declii.exit.thread4

_Z10is_decl_ofPK9func_declii.exit:                ; preds = %_ZNK4decl13get_family_idEv.exit.thread.i
  %13 = getelementptr inbounds nuw i8, ptr %8, i64 4
  %14 = load i32, ptr %13, align 4, !tbaa !73
  %15 = icmp eq i32 %14, 0
  br i1 %15, label %16, label %_Z10is_decl_ofPK9func_declii.exit.thread4

16:                                               ; preds = %_Z10is_decl_ofPK9func_declii.exit
  %17 = load ptr, ptr %3, align 8, !tbaa !74
  %.not.i = icmp eq ptr %17, null
  br i1 %.not.i, label %21, label %_ZN11ast_manager7inc_refEP3ast.exit.i

_ZN11ast_manager7inc_refEP3ast.exit.i:            ; preds = %16
  %18 = getelementptr inbounds nuw i8, ptr %17, i64 8
  %19 = load i32, ptr %18, align 4, !tbaa !75
  %20 = add i32 %19, 1
  store i32 %20, ptr %18, align 4, !tbaa !75
  br label %21

21:                                               ; preds = %_ZN11ast_manager7inc_refEP3ast.exit.i, %16
  %22 = load ptr, ptr %4, align 8, !tbaa !59
  %.not.i4.i = icmp eq ptr %22, null
  br i1 %.not.i4.i, label %_ZN7obj_refI4expr11ast_managerEaSEPS0_.exit, label %23

23:                                               ; preds = %21
  %24 = getelementptr inbounds nuw i8, ptr %4, i64 8
  %25 = load ptr, ptr %24, align 8, !tbaa !76
  %26 = getelementptr inbounds nuw i8, ptr %22, i64 8
  %27 = load i32, ptr %26, align 4, !tbaa !75
  %28 = add i32 %27, -1
  store i32 %28, ptr %26, align 4, !tbaa !75
  %29 = icmp eq i32 %28, 0
  br i1 %29, label %30, label %_ZN7obj_refI4expr11ast_managerEaSEPS0_.exit

30:                                               ; preds = %23
  tail call void @_ZN11ast_manager11delete_nodeEP3ast(ptr noundef nonnull align 8 dereferenceable(976) %25, ptr noundef nonnull %22)
  br label %_ZN7obj_refI4expr11ast_managerEaSEPS0_.exit

_ZN7obj_refI4expr11ast_managerEaSEPS0_.exit:      ; preds = %21, %23, %30
  store ptr %17, ptr %4, align 8, !tbaa !59
  br label %_Z10is_decl_ofPK9func_declii.exit.thread4

_Z10is_decl_ofPK9func_declii.exit.thread4:        ; preds = %6, %_ZNK4decl13get_family_idEv.exit.thread.i, %_Z10is_decl_ofPK9func_declii.exit, %_ZN7obj_refI4expr11ast_managerEaSEPS0_.exit
  %.0 = phi i32 [ 4, %_ZN7obj_refI4expr11ast_managerEaSEPS0_.exit ], [ 5, %_Z10is_decl_ofPK9func_declii.exit ], [ 5, %_ZNK4decl13get_family_idEv.exit.thread.i ], [ 5, %6 ]
  ret i32 %.0
}